target datalayout = "e-m:e-p270:32:32-p271:32:32-p272:64:64-i64:64-i128:128-f80:128-n8:16:32:64-S128"
target triple = "x86_64-pc-linux-gnu"

%struct._zend_executor_globals = type { %struct._zval_struct, %struct._zval_struct, [32 x ptr], ptr, ptr, %struct._zend_array, %struct._zend_array, ptr, i32, i32, ptr, ptr, ptr, ptr, ptr, ptr, i64, ptr, ptr, i32, i32, i64, i32, i32, i32, i8, i8, %struct.zend_atomic_bool_s, %struct.zend_atomic_bool_s, ptr, i64, ptr, ptr, %struct._zend_array, %struct._zend_array, i32, i8, %struct._zval_struct, %struct._zval_struct, %struct._zend_stack, %struct._zend_stack, %struct._zend_stack, ptr, i32, i32, i64, ptr, ptr, ptr, %struct._zend_objects_store, ptr, ptr, ptr, [3 x %struct._zend_op], ptr, i8, i8, i64, i32, i32, ptr, [16 x %struct._HashTableIterator], ptr, %union._zend_function, %struct._zend_op, %struct._zend_array, i64, %struct.zend_get_gc_buffer, ptr, ptr, ptr, i64, i8, i32, ptr, ptr, i64, %struct._zend_call_stack, i64, i64, [6 x ptr] }
%struct.zend_atomic_bool_s = type { i8 }
%struct._zval_struct = type { %union._zend_value, %union.anon, %union.anon.2 }
%union._zend_value = type { i64 }
%union.anon = type { i32 }
%union.anon.2 = type { i32 }
%struct._zend_stack = type { i32, i32, i32, ptr }
%struct._zend_objects_store = type { ptr, i32, i32, i32 }
%struct._HashTableIterator = type { ptr, i32, i32 }
%union._zend_function = type { %struct._zend_op_array }
%struct._zend_op_array = type { i8, [3 x i8], i32, ptr, ptr, ptr, i32, i32, ptr, ptr, ptr, ptr, i32, i32, i32, i32, ptr, ptr, ptr, ptr, ptr, i32, i32, ptr, ptr, ptr, i32, i32, i32, i32, ptr, ptr, [6 x ptr] }
%struct._zend_op = type { ptr, %union._znode_op, %union._znode_op, %union._znode_op, i32, i32, i8, i8, i8, i8 }
%union._znode_op = type { i32 }
%struct._zend_array = type { %struct._zend_refcounted_h, %union.anon.5, i32, %union.anon.7, i32, i32, i32, i32, i64, ptr }
%struct._zend_refcounted_h = type { i32, %union.anon.3 }
%union.anon.3 = type { i32 }
%union.anon.5 = type { i32 }
%union.anon.7 = type { ptr }
%struct.zend_get_gc_buffer = type { ptr, ptr, ptr }
%struct._zend_call_stack = type { ptr, i64 }
%struct._zend_execute_data = type { ptr, ptr, ptr, ptr, %struct._zval_struct, ptr, ptr, ptr, ptr }
%struct._zend_object = type { %struct._zend_refcounted_h, i32, ptr, ptr, ptr, [1 x %struct._zval_struct] }
%struct._php_random_algo_with_state = type { ptr, ptr }
%struct._php_random_randomizer = type { %struct._php_random_algo_with_state, i8, %struct._zend_object }

@executor_globals = external global %struct._zend_executor_globals, align 8

; Function Attrs: nounwind uwtable
define internal ptr @php_random_randomizer_from_obj(ptr noundef %0) #0 {
  %2 = alloca ptr, align 8
  store ptr %0, ptr %2, align 8
  %3 = load ptr, ptr %2, align 8
  %4 = getelementptr inbounds i8, ptr %3, i64 -24
  ret ptr %4
}

; Function Attrs: nounwind uwtable
define hidden void @zim_Random_Randomizer_pickArrayKeys(ptr noundef %0, ptr noundef %1) #0 {
  %3 = alloca ptr, align 8
  %4 = alloca ptr, align 8
  %5 = alloca i1, align 1
  %6 = alloca ptr, align 8
  %7 = alloca ptr, align 8
  %8 = alloca ptr, align 8
  %9 = alloca i8, align 1
  %10 = alloca i32, align 4
  %11 = alloca i8, align 1
  %12 = alloca ptr, align 8
  %13 = alloca ptr, align 8
  %14 = alloca ptr, align 8
  %15 = alloca ptr, align 8
  %16 = alloca i1, align 1
  %17 = alloca ptr, align 8
  %18 = alloca ptr, align 8
  %19 = alloca i8, align 1
  %20 = alloca i8, align 1
  %21 = alloca ptr, align 8
  %22 = alloca ptr, align 8
  %23 = alloca ptr, align 8
  %24 = alloca i8, align 1
  %25 = alloca i32, align 4
  %26 = alloca ptr, align 8
  %27 = alloca ptr, align 8
  %28 = alloca ptr, align 8
  %29 = alloca ptr, align 8
  %30 = alloca %struct._zval_struct, align 8
  %31 = alloca i64, align 8
  %32 = alloca i32, align 4
  %33 = alloca i32, align 4
  %34 = alloca i32, align 4
  %35 = alloca i32, align 4
  %36 = alloca i32, align 4
  %37 = alloca ptr, align 8
  %38 = alloca ptr, align 8
  %39 = alloca i32, align 4
  %40 = alloca ptr, align 8
  %41 = alloca i8, align 1
  %42 = alloca i8, align 1
  %43 = alloca i32, align 4
  %44 = alloca ptr, align 8
  %45 = alloca ptr, align 8
  %46 = alloca ptr, align 8
  %47 = alloca i32, align 4
  %48 = alloca ptr, align 8
  %49 = alloca ptr, align 8
  store ptr %0, ptr %26, align 8
  store ptr %1, ptr %27, align 8
  %50 = load ptr, ptr %26, align 8
  %51 = getelementptr inbounds %struct._zend_execute_data, ptr %50, i32 0, i32 4
  %52 = getelementptr inbounds %struct._zval_struct, ptr %51, i32 0, i32 0
  %53 = load ptr, ptr %52, align 8
  %54 = call ptr @php_random_randomizer_from_obj(ptr noundef %53)
  store ptr %54, ptr %28, align 8
  br label %55

55:                                               ; preds = %2
  store i32 0, ptr %32, align 4
  store i32 2, ptr %33, align 4
  store i32 2, ptr %34, align 4
  %56 = load ptr, ptr %26, align 8
  %57 = getelementptr inbounds %struct._zend_execute_data, ptr %56, i32 0, i32 4
  %58 = getelementptr inbounds %struct._zval_struct, ptr %57, i32 0, i32 2
  %59 = load i32, ptr %58, align 4
  store i32 %59, ptr %35, align 4
  store i32 0, ptr %36, align 4
  store ptr null, ptr %38, align 8
  store i32 0, ptr %39, align 4
  store ptr null, ptr %40, align 8
  store i8 0, ptr %41, align 1
  store i8 0, ptr %42, align 1
  store i32 0, ptr %43, align 4
  br label %60

60:                                               ; preds = %55
  %61 = load i32, ptr %35, align 4
  %62 = load i32, ptr %33, align 4
  %63 = icmp ult i32 %61, %62
  %64 = xor i1 %63, true
  %65 = xor i1 %64, true
  %66 = zext i1 %65 to i32
  %67 = sext i32 %66 to i64
  %68 = icmp ne i64 %67, 0
  br i1 %68, label %78, label %69

69:                                               ; preds = %60
  %70 = load i32, ptr %35, align 4
  %71 = load i32, ptr %34, align 4
  %72 = icmp ugt i32 %70, %71
  %73 = xor i1 %72, true
  %74 = xor i1 %73, true
  %75 = zext i1 %74 to i32
  %76 = sext i32 %75 to i64
  %77 = icmp ne i64 %76, 0
  br i1 %77, label %78, label %81

78:                                               ; preds = %69, %60
  %79 = load i32, ptr %33, align 4
  %80 = load i32, ptr %34, align 4
  call void @zend_wrong_parameters_count_error(i32 noundef %79, i32 noundef %80)
  store i32 1, ptr %43, align 4
  br label %275

81:                                               ; preds = %69
  %82 = load ptr, ptr %26, align 8
  %83 = getelementptr inbounds %struct._zval_struct, ptr %82, i64 4
  store ptr %83, ptr %37, align 8
  %84 = load i32, ptr %36, align 4
  %85 = add i32 %84, 1
  store i32 %85, ptr %36, align 4
  %86 = load i32, ptr %36, align 4
  %87 = load i32, ptr %33, align 4
  %88 = icmp ule i32 %86, %87
  br i1 %88, label %94, label %89

89:                                               ; preds = %81
  %90 = load i8, ptr %42, align 1
  %91 = trunc i8 %90 to i1
  %92 = zext i1 %91 to i32
  %93 = icmp eq i32 %92, 1
  br label %94

94:                                               ; preds = %89, %81
  %95 = phi i1 [ true, %81 ], [ %93, %89 ]
  call void @llvm.assume(i1 %95)
  %96 = load i32, ptr %36, align 4
  %97 = load i32, ptr %33, align 4
  %98 = icmp ugt i32 %96, %97
  br i1 %98, label %104, label %99

99:                                               ; preds = %94
  %100 = load i8, ptr %42, align 1
  %101 = trunc i8 %100 to i1
  %102 = zext i1 %101 to i32
  %103 = icmp eq i32 %102, 0
  br label %104

104:                                              ; preds = %99, %94
  %105 = phi i1 [ true, %94 ], [ %103, %99 ]
  call void @llvm.assume(i1 %105)
  %106 = load i8, ptr %42, align 1
  %107 = trunc i8 %106 to i1
  br i1 %107, label %108, label %119

108:                                              ; preds = %104
  %109 = load i32, ptr %36, align 4
  %110 = load i32, ptr %35, align 4
  %111 = icmp ugt i32 %109, %110
  %112 = xor i1 %111, true
  %113 = xor i1 %112, true
  %114 = zext i1 %113 to i32
  %115 = sext i32 %114 to i64
  %116 = icmp ne i64 %115, 0
  br i1 %116, label %117, label %118

117:                                              ; preds = %108
  br label %275

118:                                              ; preds = %108
  br label %119

119:                                              ; preds = %118, %104
  %120 = load ptr, ptr %37, align 8
  %121 = getelementptr inbounds %struct._zval_struct, ptr %120, i32 1
  store ptr %121, ptr %37, align 8
  %122 = load ptr, ptr %37, align 8
  store ptr %122, ptr %38, align 8
  %123 = load ptr, ptr %38, align 8
  store ptr %123, ptr %17, align 8
  store ptr %29, ptr %18, align 8
  store i8 0, ptr %19, align 1
  store i8 0, ptr %20, align 1
  %124 = load ptr, ptr %17, align 8
  store ptr %124, ptr %13, align 8
  %125 = load ptr, ptr %13, align 8
  %126 = getelementptr inbounds %struct._zval_struct, ptr %125, i32 0, i32 1
  %127 = load i8, ptr %126, align 8
  %128 = zext i8 %127 to i32
  %129 = icmp eq i32 %128, 7
  br i1 %129, label %140, label %130

130:                                              ; preds = %119
  %131 = load i8, ptr %20, align 1
  %132 = trunc i8 %131 to i1
  br i1 %132, label %133, label %143

133:                                              ; preds = %130
  %134 = load ptr, ptr %17, align 8
  store ptr %134, ptr %15, align 8
  %135 = load ptr, ptr %15, align 8
  %136 = getelementptr inbounds %struct._zval_struct, ptr %135, i32 0, i32 1
  %137 = load i8, ptr %136, align 8
  %138 = zext i8 %137 to i32
  %139 = icmp eq i32 %138, 8
  br i1 %139, label %140, label %143

140:                                              ; preds = %133, %119
  %141 = load ptr, ptr %17, align 8
  %142 = load ptr, ptr %18, align 8
  store ptr %141, ptr %142, align 8
  br label %156

143:                                              ; preds = %133, %130
  %144 = load i8, ptr %19, align 1
  %145 = trunc i8 %144 to i1
  br i1 %145, label %146, label %155

146:                                              ; preds = %143
  %147 = load ptr, ptr %17, align 8
  store ptr %147, ptr %14, align 8
  %148 = load ptr, ptr %14, align 8
  %149 = getelementptr inbounds %struct._zval_struct, ptr %148, i32 0, i32 1
  %150 = load i8, ptr %149, align 8
  %151 = zext i8 %150 to i32
  %152 = icmp eq i32 %151, 1
  br i1 %152, label %153, label %155

153:                                              ; preds = %146
  %154 = load ptr, ptr %18, align 8
  store ptr null, ptr %154, align 8
  br label %156

155:                                              ; preds = %146, %143
  store i1 false, ptr %16, align 1
  br label %157

156:                                              ; preds = %153, %140
  store i1 true, ptr %16, align 1
  br label %157

157:                                              ; preds = %156, %155
  %158 = load i1, ptr %16, align 1
  %159 = xor i1 %158, true
  %160 = xor i1 %159, true
  %161 = xor i1 %160, true
  %162 = zext i1 %161 to i32
  %163 = sext i32 %162 to i64
  %164 = icmp ne i64 %163, 0
  br i1 %164, label %165, label %166

165:                                              ; preds = %157
  store i32 6, ptr %39, align 4
  store i32 9, ptr %43, align 4
  br label %275

166:                                              ; preds = %157
  %167 = load i32, ptr %36, align 4
  %168 = add i32 %167, 1
  store i32 %168, ptr %36, align 4
  %169 = load i32, ptr %36, align 4
  %170 = load i32, ptr %33, align 4
  %171 = icmp ule i32 %169, %170
  br i1 %171, label %177, label %172

172:                                              ; preds = %166
  %173 = load i8, ptr %42, align 1
  %174 = trunc i8 %173 to i1
  %175 = zext i1 %174 to i32
  %176 = icmp eq i32 %175, 1
  br label %177

177:                                              ; preds = %172, %166
  %178 = phi i1 [ true, %166 ], [ %176, %172 ]
  call void @llvm.assume(i1 %178)
  %179 = load i32, ptr %36, align 4
  %180 = load i32, ptr %33, align 4
  %181 = icmp ugt i32 %179, %180
  br i1 %181, label %187, label %182

182:                                              ; preds = %177
  %183 = load i8, ptr %42, align 1
  %184 = trunc i8 %183 to i1
  %185 = zext i1 %184 to i32
  %186 = icmp eq i32 %185, 0
  br label %187

187:                                              ; preds = %182, %177
  %188 = phi i1 [ true, %177 ], [ %186, %182 ]
  call void @llvm.assume(i1 %188)
  %189 = load i8, ptr %42, align 1
  %190 = trunc i8 %189 to i1
  br i1 %190, label %191, label %202

191:                                              ; preds = %187
  %192 = load i32, ptr %36, align 4
  %193 = load i32, ptr %35, align 4
  %194 = icmp ugt i32 %192, %193
  %195 = xor i1 %194, true
  %196 = xor i1 %195, true
  %197 = zext i1 %196 to i32
  %198 = sext i32 %197 to i64
  %199 = icmp ne i64 %198, 0
  br i1 %199, label %200, label %201

200:                                              ; preds = %191
  br label %275

201:                                              ; preds = %191
  br label %202

202:                                              ; preds = %201, %187
  %203 = load ptr, ptr %37, align 8
  %204 = getelementptr inbounds %struct._zval_struct, ptr %203, i32 1
  store ptr %204, ptr %37, align 8
  %205 = load ptr, ptr %37, align 8
  store ptr %205, ptr %38, align 8
  %206 = load ptr, ptr %38, align 8
  %207 = load i32, ptr %36, align 4
  store ptr %206, ptr %21, align 8
  store ptr %31, ptr %22, align 8
  store ptr %41, ptr %23, align 8
  store i8 0, ptr %24, align 1
  store i32 %207, ptr %25, align 4
  %208 = load ptr, ptr %21, align 8
  %209 = load ptr, ptr %22, align 8
  %210 = load ptr, ptr %23, align 8
  %211 = load i8, ptr %24, align 1
  %212 = trunc i8 %211 to i1
  %213 = load i32, ptr %25, align 4
  store ptr %208, ptr %6, align 8
  store ptr %209, ptr %7, align 8
  store ptr %210, ptr %8, align 8
  %214 = zext i1 %212 to i8
  store i8 %214, ptr %9, align 1
  store i32 %213, ptr %10, align 4
  store i8 0, ptr %11, align 1
  %215 = load i8, ptr %9, align 1
  %216 = trunc i8 %215 to i1
  br i1 %216, label %217, label %219

217:                                              ; preds = %202
  %218 = load ptr, ptr %8, align 8
  store i8 0, ptr %218, align 1
  br label %219

219:                                              ; preds = %217, %202
  %220 = load ptr, ptr %6, align 8
  store ptr %220, ptr %3, align 8
  %221 = load ptr, ptr %3, align 8
  %222 = getelementptr inbounds %struct._zval_struct, ptr %221, i32 0, i32 1
  %223 = load i8, ptr %222, align 8
  %224 = zext i8 %223 to i32
  %225 = icmp eq i32 %224, 4
  br i1 %225, label %226, label %230

226:                                              ; preds = %219
  %227 = load ptr, ptr %6, align 8
  %228 = load i64, ptr %227, align 8
  %229 = load ptr, ptr %7, align 8
  store i64 %228, ptr %229, align 8
  br label %256

230:                                              ; preds = %219
  %231 = load i8, ptr %9, align 1
  %232 = trunc i8 %231 to i1
  br i1 %232, label %233, label %243

233:                                              ; preds = %230
  %234 = load ptr, ptr %6, align 8
  store ptr %234, ptr %4, align 8
  %235 = load ptr, ptr %4, align 8
  %236 = getelementptr inbounds %struct._zval_struct, ptr %235, i32 0, i32 1
  %237 = load i8, ptr %236, align 8
  %238 = zext i8 %237 to i32
  %239 = icmp eq i32 %238, 1
  br i1 %239, label %240, label %243

240:                                              ; preds = %233
  %241 = load ptr, ptr %8, align 8
  store i8 1, ptr %241, align 1
  %242 = load ptr, ptr %7, align 8
  store i64 0, ptr %242, align 8
  br label %256

243:                                              ; preds = %233, %230
  %244 = load i8, ptr %11, align 1
  %245 = trunc i8 %244 to i1
  br i1 %245, label %246, label %251

246:                                              ; preds = %243
  %247 = load ptr, ptr %6, align 8
  %248 = load ptr, ptr %7, align 8
  %249 = load i32, ptr %10, align 4
  %250 = call zeroext i1 @zend_flf_parse_arg_long_slow(ptr noundef %247, ptr noundef %248, i32 noundef %249) #8
  store i1 %250, ptr %5, align 1
  br label %257

251:                                              ; preds = %243
  %252 = load ptr, ptr %6, align 8
  %253 = load ptr, ptr %7, align 8
  %254 = load i32, ptr %10, align 4
  %255 = call zeroext i1 @zend_parse_arg_long_slow(ptr noundef %252, ptr noundef %253, i32 noundef %254) #8
  store i1 %255, ptr %5, align 1
  br label %257

256:                                              ; preds = %240, %226
  store i1 true, ptr %5, align 1
  br label %257

257:                                              ; preds = %256, %251, %246
  %258 = load i1, ptr %5, align 1
  %259 = xor i1 %258, true
  %260 = xor i1 %259, true
  %261 = xor i1 %260, true
  %262 = zext i1 %261 to i32
  %263 = sext i32 %262 to i64
  %264 = icmp ne i64 %263, 0
  br i1 %264, label %265, label %266

265:                                              ; preds = %257
  store i32 0, ptr %39, align 4
  store i32 9, ptr %43, align 4
  br label %275

266:                                              ; preds = %257
  %267 = load i32, ptr %36, align 4
  %268 = load i32, ptr %34, align 4
  %269 = icmp eq i32 %267, %268
  br i1 %269, label %273, label %270

270:                                              ; preds = %266
  %271 = load i32, ptr %34, align 4
  %272 = icmp eq i32 %271, -1
  br label %273

273:                                              ; preds = %270, %266
  %274 = phi i1 [ true, %266 ], [ %272, %270 ]
  call void @llvm.assume(i1 %274)
  br label %275

275:                                              ; preds = %273, %265, %200, %165, %117, %78
  %276 = load i32, ptr %43, align 4
  %277 = icmp ne i32 %276, 0
  %278 = xor i1 %277, true
  %279 = xor i1 %278, true
  %280 = zext i1 %279 to i32
  %281 = sext i32 %280 to i64
  %282 = icmp ne i64 %281, 0
  br i1 %282, label %283, label %289

283:                                              ; preds = %275
  %284 = load i32, ptr %43, align 4
  %285 = load i32, ptr %36, align 4
  %286 = load ptr, ptr %40, align 8
  %287 = load i32, ptr %39, align 4
  %288 = load ptr, ptr %38, align 8
  call void @zend_wrong_parameter_error(i32 noundef %284, i32 noundef %285, ptr noundef %286, i32 noundef %287, ptr noundef %288)
  br label %344

289:                                              ; preds = %275
  br label %290

290:                                              ; preds = %289
  %291 = load ptr, ptr %28, align 8
  %292 = getelementptr inbounds %struct._php_random_randomizer, ptr %291, i32 0, i32 0
  %293 = load ptr, ptr %29, align 8
  %294 = load i64, ptr %31, align 8
  %295 = load ptr, ptr %27, align 8
  %296 = getelementptr inbounds { ptr, ptr }, ptr %292, i32 0, i32 0
  %297 = load ptr, ptr %296, align 8
  %298 = getelementptr inbounds { ptr, ptr }, ptr %292, i32 0, i32 1
  %299 = load ptr, ptr %298, align 8
  %300 = call zeroext i1 @php_array_pick_keys(ptr %297, ptr %299, ptr noundef %293, i64 noundef %294, ptr noundef %295, i1 noundef zeroext false)
  br i1 %300, label %306, label %301

301:                                              ; preds = %290
  br label %302

302:                                              ; preds = %301
  %303 = load ptr, ptr getelementptr inbounds (%struct._zend_executor_globals, ptr @executor_globals, i32 0, i32 50), align 8
  %304 = icmp ne ptr %303, null
  call void @llvm.assume(i1 %304)
  br label %344

305:                                              ; No predecessors!
  br label %306

306:                                              ; preds = %305, %290
  %307 = load ptr, ptr %27, align 8
  store ptr %307, ptr %12, align 8
  %308 = load ptr, ptr %12, align 8
  %309 = getelementptr inbounds %struct._zval_struct, ptr %308, i32 0, i32 1
  %310 = load i8, ptr %309, align 8
  %311 = zext i8 %310 to i32
  %312 = icmp ne i32 %311, 7
  br i1 %312, label %313, label %344

313:                                              ; preds = %306
  br label %314

314:                                              ; preds = %313
  store ptr %30, ptr %44, align 8
  %315 = load ptr, ptr %27, align 8
  store ptr %315, ptr %45, align 8
  %316 = load ptr, ptr %45, align 8
  %317 = getelementptr inbounds %struct._zval_struct, ptr %316, i32 0, i32 0
  %318 = load ptr, ptr %317, align 8
  store ptr %318, ptr %46, align 8
  %319 = load ptr, ptr %45, align 8
  %320 = getelementptr inbounds %struct._zval_struct, ptr %319, i32 0, i32 1
  %321 = load i32, ptr %320, align 8
  store i32 %321, ptr %47, align 4
  br label %322

322:                                              ; preds = %314
  %323 = load ptr, ptr %46, align 8
  %324 = load ptr, ptr %44, align 8
  %325 = getelementptr inbounds %struct._zval_struct, ptr %324, i32 0, i32 0
  store ptr %323, ptr %325, align 8
  %326 = load i32, ptr %47, align 4
  %327 = load ptr, ptr %44, align 8
  %328 = getelementptr inbounds %struct._zval_struct, ptr %327, i32 0, i32 1
  store i32 %326, ptr %328, align 8
  br label %329

329:                                              ; preds = %322
  br label %330

330:                                              ; preds = %329
  br label %331

331:                                              ; preds = %330
  %332 = call ptr @_zend_new_array_0()
  store ptr %332, ptr %48, align 8
  %333 = load ptr, ptr %27, align 8
  store ptr %333, ptr %49, align 8
  %334 = load ptr, ptr %48, align 8
  %335 = load ptr, ptr %49, align 8
  %336 = getelementptr inbounds %struct._zval_struct, ptr %335, i32 0, i32 0
  store ptr %334, ptr %336, align 8
  %337 = load ptr, ptr %49, align 8
  %338 = getelementptr inbounds %struct._zval_struct, ptr %337, i32 0, i32 1
  store i32 775, ptr %338, align 8
  br label %339

339:                                              ; preds = %331
  %340 = load ptr, ptr %27, align 8
  %341 = getelementptr inbounds %struct._zval_struct, ptr %340, i32 0, i32 0
  %342 = load ptr, ptr %341, align 8
  %343 = call ptr @zend_hash_next_index_insert(ptr noundef %342, ptr noundef %30)
  br label %344

344:                                              ; preds = %339, %306, %302, %283
  ret void
}