; Function Attrs: nounwind uwtable
define hidden void @zim_Random_Randomizer_pickArrayKeys(ptr noundef %0, ptr noundef %1) local_unnamed_addr #0 {
  %3 = alloca %struct._zval_struct, align 8
  %4 = alloca i64, align 8
  %5 = getelementptr inbounds i8, ptr %0, i64 32
  %6 = load ptr, ptr %5, align 8
  %7 = getelementptr inbounds i8, ptr %6, i64 -24
  %8 = getelementptr inbounds i8, ptr %0, i64 44
  %9 = load i32, ptr %8, align 4
  %.not = icmp eq i32 %9, 2
  br i1 %.not, label %11, label %10

10:                                               ; preds = %2
  tail call void @zend_wrong_parameters_count_error(i32 noundef 2, i32 noundef 2) #7
  br label %.thread117

11:                                               ; preds = %2
  %12 = getelementptr inbounds i8, ptr %0, i64 80
  %13 = getelementptr inbounds i8, ptr %0, i64 88
  %14 = load i8, ptr %13, align 8
  %.not105 = icmp eq i8 %14, 7
  br i1 %.not105, label %15, label %.thread117

15:                                               ; preds = %11
  %16 = getelementptr inbounds i8, ptr %0, i64 96
  %17 = getelementptr inbounds i8, ptr %0, i64 104
  %18 = load i8, ptr %17, align 8
  %19 = icmp eq i8 %18, 4
  br i1 %19, label %.thread113, label %21

.thread113:                                       ; preds = %15
  %20 = load i64, ptr %16, align 8
  store i64 %20, ptr %4, align 8
  br label %.thread137

21:                                               ; preds = %15
  %22 = call zeroext i1 @zend_parse_arg_long_slow(ptr noundef nonnull %16, ptr noundef nonnull %4, i32 noundef 2) #7
  %.fr = freeze i1 %22
  br i1 %.fr, label %..thread137_crit_edge, label %.thread117

..thread137_crit_edge:                            ; preds = %21
  %.pre = load i64, ptr %4, align 8
  br label %.thread137

.thread117:                                       ; preds = %11, %10, %21
  %.097127 = phi i32 [ 2, %21 ], [ 1, %11 ], [ 0, %10 ]
  %.098126 = phi ptr [ %16, %21 ], [ %12, %11 ], [ null, %10 ]
  %.099125 = phi i32 [ 0, %21 ], [ 6, %11 ], [ 0, %10 ]
  %.0100124 = phi i32 [ 9, %21 ], [ 9, %11 ], [ 1, %10 ]
  call void @zend_wrong_parameter_error(i32 noundef %.0100124, i32 noundef %.097127, ptr noundef null, i32 noundef %.099125, ptr noundef %.098126) #7
  br label %40

.thread137:                                       ; preds = %..thread137_crit_edge, %.thread113
  %23 = phi i64 [ %.pre, %..thread137_crit_edge ], [ %20, %.thread113 ]
  %24 = load ptr, ptr %7, align 8
  %25 = getelementptr inbounds i8, ptr %6, i64 -16
  %26 = load ptr, ptr %25, align 8
  %27 = call zeroext i1 @php_array_pick_keys(ptr %24, ptr %26, ptr noundef nonnull %12, i64 noundef %23, ptr noundef %1, i1 noundef zeroext false) #7
  br i1 %27, label %31, label %28

28:                                               ; preds = %.thread137
  %29 = load ptr, ptr getelementptr inbounds (%struct._zend_executor_globals, ptr @executor_globals, i64 0, i32 50), align 8
  %30 = icmp ne ptr %29, null
  call void @llvm.assume(i1 %30)
  br label %40

31:                                               ; preds = %.thread137
  %32 = getelementptr inbounds i8, ptr %1, i64 8
  %33 = load i8, ptr %32, align 8
  %.not107 = icmp eq i8 %33, 7
  br i1 %.not107, label %40, label %34

34:                                               ; preds = %31
  %35 = load ptr, ptr %1, align 8
  %36 = load i32, ptr %32, align 8
  store ptr %35, ptr %3, align 8
  %37 = getelementptr inbounds i8, ptr %3, i64 8
  store i32 %36, ptr %37, align 8
  %38 = call ptr @_zend_new_array_0() #7
  store ptr %38, ptr %1, align 8
  store i32 775, ptr %32, align 8
  %39 = call ptr @zend_hash_next_index_insert(ptr noundef %38, ptr noundef nonnull %3) #7
  br label %40

40:                                               ; preds = %34, %31, %28, %.thread117
  ret void
}